; ModuleID = '37/1065.c'
source_filename = "37/1065.c"
target datalayout = "e-m:e-p270:32:32-p271:32:32-p272:64:64-i64:64-f80:128-n8:16:32:64-S128"
target triple = "x86_64-pc-linux-gnu"

@.str = private unnamed_addr constant [4 x i8] c"%d\0A\00", align 1
@.str.1 = private unnamed_addr constant [4 x i8] c"%c\0A\00", align 1
@.str.2 = private unnamed_addr constant [4 x i8] c"no\0A\00", align 1

; Function Attrs: noinline nounwind uwtable
define dso_local i32 @main() #0 {
  %1 = alloca i32, align 4
  %2 = alloca i32, align 4
  %3 = alloca i32, align 4
  %4 = alloca i32, align 4
  %5 = alloca i32, align 4
  %6 = alloca i32, align 4
  %7 = alloca i32, align 4
  %8 = alloca [100000 x i8], align 16
  %9 = alloca i8*, align 8
  %10 = alloca i8*, align 8
  store i32 0, i32* %1, align 4
  %11 = call i32 (i8*, ...) @__isoc99_scanf(i8* getelementptr inbounds ([4 x i8], [4 x i8]* @.str, i64 0, i64 0), i32* %2)
  store i32 0, i32* %3, align 4
  br label %12

12:                                               ; preds = %74, %0
  %13 = load i32, i32* %3, align 4
  %14 = load i32, i32* %2, align 4
  %15 = icmp slt i32 %13, %14
  br i1 %15, label %16, label %77

16:                                               ; preds = %12
  %17 = getelementptr inbounds [100000 x i8], [100000 x i8]* %8, i64 0, i64 0
  %18 = call i32 (i8*, ...) bitcast (i32 (...)* @gets to i32 (i8*, ...)*)(i8* %17)
  %19 = getelementptr inbounds [100000 x i8], [100000 x i8]* %8, i64 0, i64 0
  %20 = call i64 @strlen(i8* %19) #3
  %21 = trunc i64 %20 to i32
  store i32 %21, i32* %4, align 4
  store i32 0, i32* %6, align 4
  %22 = getelementptr inbounds [100000 x i8], [100000 x i8]* %8, i64 0, i64 0
  store i8* %22, i8** %9, align 8
  br label %23

23:                                               ; preds = %65, %16
  %24 = load i8*, i8** %9, align 8
  %25 = getelementptr inbounds [100000 x i8], [100000 x i8]* %8, i64 0, i64 0
  %26 = load i32, i32* %4, align 4
  %27 = sext i32 %26 to i64
  %28 = getelementptr inbounds i8, i8* %25, i64 %27
  %29 = icmp ult i8* %24, %28
  br i1 %29, label %30, label %68

30:                                               ; preds = %23
  store i32 1, i32* %5, align 4
  %31 = getelementptr inbounds [100000 x i8], [100000 x i8]* %8, i64 0, i64 0
  store i8* %31, i8** %10, align 8
  br label %32

32:                                               ; preds = %53, %30
  %33 = load i8*, i8** %10, align 8
  %34 = getelementptr inbounds [100000 x i8], [100000 x i8]* %8, i64 0, i64 0
  %35 = load i32, i32* %4, align 4
  %36 = sext i32 %35 to i64
  %37 = getelementptr inbounds i8, i8* %34, i64 %36
  %38 = icmp ult i8* %33, %37
  br i1 %38, label %39, label %56

39:                                               ; preds = %32
  %40 = load i8*, i8** %9, align 8
  %41 = load i8*, i8** %10, align 8
  %42 = icmp ne i8* %40, %41
  br i1 %42, label %43, label %52

43:                                               ; preds = %39
  %44 = load i8*, i8** %9, align 8
  %45 = load i8, i8* %44, align 1
  %46 = sext i8 %45 to i32
  %47 = load i8*, i8** %10, align 8
  %48 = load i8, i8* %47, align 1
  %49 = sext i8 %48 to i32
  %50 = icmp eq i32 %46, %49
  br i1 %50, label %51, label %52

51:                                               ; preds = %43
  store i32 0, i32* %5, align 4
  br label %56

52:                                               ; preds = %43, %39
  br label %53

53:                                               ; preds = %52
  %54 = load i8*, i8** %10, align 8
  %55 = getelementptr inbounds i8, i8* %54, i32 1
  store i8* %55, i8** %10, align 8
  br label %32

56:                                               ; preds = %51, %32
  %57 = load i32, i32* %5, align 4
  %58 = icmp eq i32 %57, 1
  br i1 %58, label %59, label %64

59:                                               ; preds = %56
  store i32 1, i32* %6, align 4
  %60 = load i8*, i8** %9, align 8
  %61 = load i8, i8* %60, align 1
  %62 = sext i8 %61 to i32
  %63 = call i32 (i8*, ...) @printf(i8* getelementptr inbounds ([4 x i8], [4 x i8]* @.str.1, i64 0, i64 0), i32 %62)
  br label %68

64:                                               ; preds = %56
  br label %65

65:                                               ; preds = %64
  %66 = load i8*, i8** %9, align 8
  %67 = getelementptr inbounds i8, i8* %66, i32 1
  store i8* %67, i8** %9, align 8
  br label %23

68:                                               ; preds = %59, %23
  %69 = load i32, i32* %6, align 4
  %70 = icmp eq i32 %69, 0
  br i1 %70, label %71, label %73

71:                                               ; preds = %68
  %72 = call i32 (i8*, ...) @printf(i8* getelementptr inbounds ([4 x i8], [4 x i8]* @.str.2, i64 0, i64 0))
  br label %73

73:                                               ; preds = %71, %68
  br label %74

74:                                               ; preds = %73
  %75 = load i32, i32* %3, align 4
  %76 = add nsw i32 %75, 1
  store i32 %76, i32* %3, align 4
  br label %12

77:                                               ; preds = %12
  ret i32 0
}

declare dso_local i32 @__isoc99_scanf(i8*, ...) #1

declare dso_local i32 @gets(...) #1

; Function Attrs: nounwind readonly
declare dso_local i64 @strlen(i8*) #2

declare dso_local i32 @printf(i8*, ...) #1


!llvm.module.flags = !{!0}
!llvm.ident = !{!1}

!0 = !{i32 1, !"wchar_size", i32 4}
!1 = !{!"clang version 10.0.0-4ubuntu1 "}
